Certificate:
    Data:
        Version: 3 (0x2)
        Serial Number: 11 (0xb)
        Signature Algorithm: sha1WithRSAEncryption
        Issuer: C=BE, ST=Walloon Region, L=Louvain-la-Neuve, O=UCL, OU=GSI, CN=The Certificate Authority/emailAddress=tania.martin@uclouvain.be
        Validity
            Not Before: Oct 18 09:38:41 2011 GMT
            Not After : Oct 17 09:38:41 2012 GMT
        Subject: C=BE, ST=Brabant Wallon, L=Louvain La Neuve, O=Universit\xC3\xA9 Catholique de Louvain, OU=INGI, CN=leetDwich/emailAddress=thibault.poncelet@student.uclouvain.be
        Subject Public Key Info:
            Public Key Algorithm: rsaEncryption
            RSA Public Key: (1024 bit)
                Modulus (1024 bit):
                    00:b9:95:7b:3d:a2:72:20:7c:73:97:85:81:2d:09:
                    71:46:8a:55:3e:31:46:a0:8a:c7:9c:3e:b7:8d:a1:
                    8f:9e:33:78:40:e8:79:7e:a9:ba:57:03:2d:ef:19:
                    a1:48:6d:b5:31:e6:d4:95:40:1b:b3:e0:f5:72:2f:
                    5f:a9:ee:47:54:4d:0f:bb:d6:80:a2:f5:64:a9:6d:
                    08:96:f4:5a:1d:0f:4e:58:8a:1d:fb:3d:65:54:05:
                    2c:41:4d:98:7a:69:aa:41:24:80:6c:54:12:08:3a:
                    b1:67:54:61:00:15:dd:b0:12:be:10:7c:0f:03:32:
                    14:ec:1d:91:03:03:19:4c:15
                Exponent: 65537 (0x10001)
        X509v3 extensions:
            X509v3 Basic Constraints: 
                CA:FALSE
            Netscape Comment: 
                OpenSSL Generated Certificate
            X509v3 Subject Key Identifier: 
                A8:08:C1:7D:BA:7B:AD:54:0D:43:69:AD:6A:CE:1B:71:13:81:92:D8
            X509v3 Authority Key Identifier: 
                keyid:94:9B:7D:F4:22:98:B6:C9:09:51:12:EC:16:B4:6D:A9:6D:0B:97:75

    Signature Algorithm: sha1WithRSAEncryption
        25:c2:70:76:7e:67:0a:c3:a0:65:41:a3:3a:36:c7:db:3d:44:
        df:db:2e:51:97:db:9b:7b:40:e6:5d:ec:81:2a:29:2a:99:a1:
        10:26:dd:96:8b:ae:6f:7d:0e:d2:60:68:fd:ac:f3:0f:b4:92:
        e7:ab:9e:d4:e1:d5:67:20:80:ab:b4:39:12:32:be:63:f4:48:
        ec:21:f9:3c:48:af:77:63:25:7a:13:05:0c:28:c4:95:b6:51:
        b2:74:61:1d:8f:11:a5:c1:b9:fe:a1:f6:7c:cc:fe:dd:86:dd:
        27:d6:30:01:89:1a:1b:29:c0:89:82:d3:b3:90:28:27:c0:3a:
        1d:3f
-----BEGIN CERTIFICATE-----
MIIDZTCCAs6gAwIBAgIBCzANBgkqhkiG9w0BAQUFADCBqzELMAkGA1UEBhMCQkUx
FzAVBgNVBAgTDldhbGxvb24gUmVnaW9uMRkwFwYDVQQHExBMb3V2YWluLWxhLU5l
dXZlMQwwCgYDVQQKEwNVQ0wxDDAKBgNVBAsTA0dTSTEiMCAGA1UEAxMZVGhlIENl
cnRpZmljYXRlIEF1dGhvcml0eTEoMCYGCSqGSIb3DQEJARYZdGFuaWEubWFydGlu
QHVjbG91dmFpbi5iZTAeFw0xMTEwMTgwOTM4NDFaFw0xMjEwMTcwOTM4NDFaMIHH
MQswCQYDVQQGEwJCRTEXMBUGA1UECBMOQnJhYmFudCBXYWxsb24xGTAXBgNVBAcT
EExvdXZhaW4gTGEgTmV1dmUxKjAoBgNVBAoUIVVuaXZlcnNpdMOpIENhdGhvbGlx
dWUgZGUgTG91dmFpbjENMAsGA1UECxMESU5HSTESMBAGA1UEAxMJbGVldER3aWNo
MTUwMwYJKoZIhvcNAQkBFiZ0aGliYXVsdC5wb25jZWxldEBzdHVkZW50LnVjbG91
dmFpbi5iZTCBnzANBgkqhkiG9w0BAQEFAAOBjQAwgYkCgYEAuZV7PaJyIHxzl4WB
LQlxRopVPjFGoIrHnD63jaGPnjN4QOh5fqm6VwMt7xmhSG21MebUlUAbs+D1ci9f
qe5HVE0Pu9aAovVkqW0IlvRaHQ9OWIod+z1lVAUsQU2YemmqQSSAbFQSCDqxZ1Rh
ABXdsBK+EHwPAzIU7B2RAwMZTBUCAwEAAaN7MHkwCQYDVR0TBAIwADAsBglghkgB
hvhCAQ0EHxYdT3BlblNTTCBHZW5lcmF0ZWQgQ2VydGlmaWNhdGUwHQYDVR0OBBYE
FKgIwX26e61UDUNprWrOG3ETgZLYMB8GA1UdIwQYMBaAFJSbffQimLbJCVES7Ba0
baltC5d1MA0GCSqGSIb3DQEBBQUAA4GBACXCcHZ+ZwrDoGVBozo2x9s9RN/bLlGX
25t7QOZd7IEqKSqZoRAm3ZaLrm99DtJgaP2s8w+0kuerntTh1WcggKu0ORIyvmP0
SOwh+TxIr3djJXoTBQwoxJW2UbJ0YR2PEaXBuf6h9nzM/t2G3SfWMAGJGhspwImC
07OQKCfAOh0/
-----END CERTIFICATE-----
