Certificate:
    Data:
        Version: 3 (0x2)
        Serial Number: 6 (0x6)
        Signature Algorithm: sha1WithRSAEncryption
        Issuer: C=BE, ST=Walloon Region, L=Louvain-la-Neuve, O=UCL, OU=GSI, CN=The Certificate Authority/emailAddress=tania.martin@uclouvain.be
        Validity
            Not Before: Oct 17 09:22:28 2011 GMT
            Not After : Oct 16 09:22:28 2012 GMT
        Subject: C=BE, ST=Brabant, L=LLN, O=Lord Of The Sandwich, CN=John Doe/emailAddress=john.doe@lordsandwich.be
        Subject Public Key Info:
            Public Key Algorithm: rsaEncryption
            RSA Public Key: (1024 bit)
                Modulus (1024 bit):
                    00:99:4a:fc:13:47:6d:53:9b:03:71:9b:d2:a3:85:
                    f3:43:d7:04:61:57:e2:8b:0c:ec:4a:b9:33:40:ea:
                    83:e1:25:7b:d2:f9:28:67:bb:d3:55:89:be:3f:ae:
                    2c:c6:73:9f:10:e9:9b:5d:89:d8:55:83:41:c8:5d:
                    ab:ff:bb:61:35:7e:73:30:82:4f:a0:4e:a9:6b:35:
                    77:6c:ae:68:5f:2e:1d:3b:0e:22:18:03:84:31:c5:
                    b8:2a:c8:f1:c4:2c:b1:3b:45:ef:4f:03:22:86:85:
                    fa:6a:c0:fc:c0:26:ef:75:95:77:5b:ec:11:13:e4:
                    f1:e9:c7:57:00:ec:a8:59:a7
                Exponent: 65537 (0x10001)
        X509v3 extensions:
            X509v3 Basic Constraints: 
                CA:FALSE
            Netscape Comment: 
                OpenSSL Generated Certificate
            X509v3 Subject Key Identifier: 
                A9:07:ED:95:7E:CE:F3:4C:10:99:47:DA:B6:A8:50:55:58:7D:43:98
            X509v3 Authority Key Identifier: 
                keyid:94:9B:7D:F4:22:98:B6:C9:09:51:12:EC:16:B4:6D:A9:6D:0B:97:75

    Signature Algorithm: sha1WithRSAEncryption
        2f:cf:b4:17:96:5d:f5:ed:22:a6:6f:e7:b6:e3:9c:d1:49:7d:
        06:4c:fa:ed:7a:29:33:1e:b0:c8:95:77:2a:8b:91:90:3a:6a:
        b7:b2:d0:ea:54:18:20:b9:7b:bd:7d:47:06:06:23:53:72:0e:
        8a:5a:57:12:50:41:f6:f6:23:30:c1:b7:1b:59:b0:07:50:7f:
        9a:2a:36:e9:f6:41:3c:ff:ec:38:d9:a5:43:2a:98:d3:4c:6e:
        f8:e3:7d:b1:3d:1e:7c:d0:cc:19:3c:2b:70:02:bc:6a:b8:09:
        8f:70:ef:62:23:f5:ba:8e:5b:b0:a9:85:f2:59:ab:0c:ff:c4:
        02:9d
-----BEGIN CERTIFICATE-----
MIIDJjCCAo+gAwIBAgIBBjANBgkqhkiG9w0BAQUFADCBqzELMAkGA1UEBhMCQkUx
FzAVBgNVBAgTDldhbGxvb24gUmVnaW9uMRkwFwYDVQQHExBMb3V2YWluLWxhLU5l
dXZlMQwwCgYDVQQKEwNVQ0wxDDAKBgNVBAsTA0dTSTEiMCAGA1UEAxMZVGhlIENl
cnRpZmljYXRlIEF1dGhvcml0eTEoMCYGCSqGSIb3DQEJARYZdGFuaWEubWFydGlu
QHVjbG91dmFpbi5iZTAeFw0xMTEwMTcwOTIyMjhaFw0xMjEwMTYwOTIyMjhaMIGI
MQswCQYDVQQGEwJCRTEQMA4GA1UECBMHQnJhYmFudDEMMAoGA1UEBxMDTExOMR0w
GwYDVQQKExRMb3JkIE9mIFRoZSBTYW5kd2ljaDERMA8GA1UEAxMISm9obiBEb2Ux
JzAlBgkqhkiG9w0BCQEWGGpvaG4uZG9lQGxvcmRzYW5kd2ljaC5iZTCBnzANBgkq
hkiG9w0BAQEFAAOBjQAwgYkCgYEAmUr8E0dtU5sDcZvSo4XzQ9cEYVfiiwzsSrkz
QOqD4SV70vkoZ7vTVYm+P64sxnOfEOmbXYnYVYNByF2r/7thNX5zMIJPoE6pazV3
bK5oXy4dOw4iGAOEMcW4KsjxxCyxO0XvTwMihoX6asD8wCbvdZV3W+wRE+Tx6cdX
AOyoWacCAwEAAaN7MHkwCQYDVR0TBAIwADAsBglghkgBhvhCAQ0EHxYdT3BlblNT
TCBHZW5lcmF0ZWQgQ2VydGlmaWNhdGUwHQYDVR0OBBYEFKkH7ZV+zvNMEJlH2rao
UFVYfUOYMB8GA1UdIwQYMBaAFJSbffQimLbJCVES7Ba0baltC5d1MA0GCSqGSIb3
DQEBBQUAA4GBAC/PtBeWXfXtIqZv57bjnNFJfQZM+u16KTMesMiVdyqLkZA6arey
0OpUGCC5e719RwYGI1NyDopaVxJQQfb2IzDBtxtZsAdQf5oqNun2QTz/7DjZpUMq
mNNMbvjjfbE9HnzQzBk8K3ACvGq4CY9w72Ij9bqOW7CphfJZqwz/xAKd
-----END CERTIFICATE-----
