Certificate:
    Data:
        Version: 3 (0x2)
        Serial Number: 9 (0x9)
        Signature Algorithm: sha1WithRSAEncryption
        Issuer: C=BE, ST=Walloon Region, L=Louvain-la-Neuve, O=UCL, OU=GSI, CN=The Certificate Authority/emailAddress=tania.martin@uclouvain.be
        Validity
            Not Before: Oct 17 11:36:21 2011 GMT
            Not After : Oct 16 11:36:21 2012 GMT
        Subject: C=BE, ST=Some-State, L=LLN, O=Panem et Circenses, OU=Panem et Circenses, CN=Panem et Circenses
        Subject Public Key Info:
            Public Key Algorithm: rsaEncryption
            RSA Public Key: (1024 bit)
                Modulus (1024 bit):
                    00:9e:51:a3:46:ff:16:3c:78:22:bd:7e:61:0b:cb:
                    73:72:f6:ac:5b:ec:4f:41:fc:9e:99:d6:64:87:2f:
                    06:09:7d:73:b3:d4:e4:9d:97:c9:b6:c8:da:83:43:
                    09:b2:c0:b2:2f:fc:06:6b:f2:c8:f9:44:12:9f:36:
                    ff:f4:e6:b7:76:7f:03:54:ff:b0:94:1b:78:26:0a:
                    cf:22:c4:a3:f8:e4:0a:d4:b7:e6:05:b3:1c:24:64:
                    49:a5:19:90:ef:aa:63:80:62:f2:ad:80:ab:50:de:
                    6f:ea:85:b0:38:ac:3f:60:1b:9b:9f:8c:f8:60:0a:
                    0d:d0:a8:2b:96:fe:96:1b:3f
                Exponent: 65537 (0x10001)
        X509v3 extensions:
            X509v3 Basic Constraints: 
                CA:FALSE
            Netscape Comment: 
                OpenSSL Generated Certificate
            X509v3 Subject Key Identifier: 
                6A:C0:25:5E:1E:AD:61:06:1E:02:B4:07:A2:23:81:6C:FF:7B:EB:6E
            X509v3 Authority Key Identifier: 
                keyid:94:9B:7D:F4:22:98:B6:C9:09:51:12:EC:16:B4:6D:A9:6D:0B:97:75

    Signature Algorithm: sha1WithRSAEncryption
        50:17:a3:e9:3b:59:3b:0f:0b:93:08:96:dd:d9:11:eb:ad:37:
        f6:da:94:38:e3:34:e9:e1:6c:f8:ae:fc:90:4c:51:31:bc:4f:
        67:91:48:5f:6a:c0:a1:8d:02:ea:10:53:43:dc:f4:b6:ab:52:
        df:a1:d7:f2:ac:37:a5:0d:18:f1:33:72:81:c2:8e:32:a9:9b:
        a3:87:ee:19:61:83:6d:35:2c:0c:b8:fa:72:94:06:ac:b7:fd:
        14:f9:65:e9:03:16:35:4c:c5:b3:6e:5b:13:f8:16:66:6f:69:
        72:77:89:c8:cd:b4:70:1e:3c:69:da:f0:59:ad:be:71:db:63:
        36:07
-----BEGIN CERTIFICATE-----
MIIDJTCCAo6gAwIBAgIBCTANBgkqhkiG9w0BAQUFADCBqzELMAkGA1UEBhMCQkUx
FzAVBgNVBAgTDldhbGxvb24gUmVnaW9uMRkwFwYDVQQHExBMb3V2YWluLWxhLU5l
dXZlMQwwCgYDVQQKEwNVQ0wxDDAKBgNVBAsTA0dTSTEiMCAGA1UEAxMZVGhlIENl
cnRpZmljYXRlIEF1dGhvcml0eTEoMCYGCSqGSIb3DQEJARYZdGFuaWEubWFydGlu
QHVjbG91dmFpbi5iZTAeFw0xMTEwMTcxMTM2MjFaFw0xMjEwMTYxMTM2MjFaMIGH
MQswCQYDVQQGEwJCRTETMBEGA1UECBMKU29tZS1TdGF0ZTEMMAoGA1UEBxMDTExO
MRswGQYDVQQKExJQYW5lbSBldCBDaXJjZW5zZXMxGzAZBgNVBAsTElBhbmVtIGV0
IENpcmNlbnNlczEbMBkGA1UEAxMSUGFuZW0gZXQgQ2lyY2Vuc2VzMIGfMA0GCSqG
SIb3DQEBAQUAA4GNADCBiQKBgQCeUaNG/xY8eCK9fmELy3Ny9qxb7E9B/J6Z1mSH
LwYJfXOz1OSdl8m2yNqDQwmywLIv/AZr8sj5RBKfNv/05rd2fwNU/7CUG3gmCs8i
xKP45ArUt+YFsxwkZEmlGZDvqmOAYvKtgKtQ3m/qhbA4rD9gG5ufjPhgCg3QqCuW
/pYbPwIDAQABo3sweTAJBgNVHRMEAjAAMCwGCWCGSAGG+EIBDQQfFh1PcGVuU1NM
IEdlbmVyYXRlZCBDZXJ0aWZpY2F0ZTAdBgNVHQ4EFgQUasAlXh6tYQYeArQHoiOB
bP97624wHwYDVR0jBBgwFoAUlJt99CKYtskJURLsFrRtqW0Ll3UwDQYJKoZIhvcN
AQEFBQADgYEAUBej6TtZOw8LkwiW3dkR66039tqUOOM06eFs+K78kExRMbxPZ5FI
X2rAoY0C6hBTQ9z0tqtS36HX8qw3pQ0Y8TNygcKOMqmbo4fuGWGDbTUsDLj6cpQG
rLf9FPll6QMWNUzFs25bE/gWZm9pcneJyM20cB48adrwWa2+cdtjNgc=
-----END CERTIFICATE-----
